target datalayout = "e-m:e-p270:32:32-p271:32:32-p272:64:64-i64:64-i128:128-f80:128-n8:16:32:64-S128"
target triple = "x86_64-pc-linux-gnu"

%"class.glslang::TIntermTyped" = type { %class.TIntermNode, %"class.glslang::TType" }
%class.TIntermNode = type { ptr, %"struct.glslang::TSourceLoc" }
%"struct.glslang::TSourceLoc" = type { ptr, i32, i32, i32 }
%"class.glslang::TType" = type { ptr, i32, [4 x i8], %"class.glslang::TQualifier", ptr, %union.anon, ptr, ptr, %"struct.glslang::TSampler", ptr, ptr }
%"class.glslang::TQualifier" = type <{ ptr, i64, i8, [3 x i8], i32, i32, i64, i64, i8, i8, i8, i8, i8, [3 x i8], i32, i8, i8, i8, i8, i32, ptr, i8, i8, [6 x i8] }>
%union.anon = type { ptr }
%"struct.glslang::TSampler" = type { i32 }
%"class.glslang::TIntermOperator" = type { %"class.glslang::TIntermTyped", i32, i32 }
%"class.glslang::TIntermBinary" = type { %"class.glslang::TIntermOperator", ptr, ptr }

; Function Attrs: mustprogress nounwind uwtable
define linkonce_odr noundef nonnull align 4 dereferenceable(4) ptr @_ZSt3maxIN7glslang19TPrecisionQualifierEERKT_S4_S4_(ptr noundef nonnull align 4 dereferenceable(4) %0, ptr noundef nonnull align 4 dereferenceable(4) %1) #0 comdat {
  %3 = alloca ptr, align 8
  %4 = alloca ptr, align 8
  %5 = alloca ptr, align 8
  store ptr %0, ptr %4, align 8
  store ptr %1, ptr %5, align 8
  %6 = load ptr, ptr %4, align 8
  %7 = load i32, ptr %6, align 4
  %8 = load ptr, ptr %5, align 8
  %9 = load i32, ptr %8, align 4
  %10 = icmp slt i32 %7, %9
  br i1 %10, label %11, label %13

11:                                               ; preds = %2
  %12 = load ptr, ptr %5, align 8
  store ptr %12, ptr %3, align 8
  br label %15

13:                                               ; preds = %2
  %14 = load ptr, ptr %4, align 8
  store ptr %14, ptr %3, align 8
  br label %15

15:                                               ; preds = %13, %11
  %16 = load ptr, ptr %3, align 8
  ret ptr %16
}

; Function Attrs: mustprogress nounwind uwtable
define void @_ZN7glslang13TIntermBinary15updatePrecisionEv(ptr noundef nonnull align 8 dereferenceable(208) %0) unnamed_addr #0 align 2 {
  %2 = alloca ptr, align 8
  %3 = alloca i32, align 4
  %4 = alloca i32, align 4
  store ptr %0, ptr %2, align 8
  %5 = load ptr, ptr %2, align 8
  %6 = load ptr, ptr %5, align 8
  %7 = getelementptr inbounds ptr, ptr %6, i64 32
  %8 = load ptr, ptr %7, align 8
  %9 = call noundef i32 %8(ptr noundef nonnull align 8 dereferenceable(184) %5)
  %10 = icmp eq i32 %9, 8
  br i1 %10, label %23, label %11

11:                                               ; preds = %1
  %12 = load ptr, ptr %5, align 8
  %13 = getelementptr inbounds ptr, ptr %12, i64 32
  %14 = load ptr, ptr %13, align 8
  %15 = call noundef i32 %14(ptr noundef nonnull align 8 dereferenceable(184) %5)
  %16 = icmp eq i32 %15, 9
  br i1 %16, label %23, label %17

17:                                               ; preds = %11
  %18 = load ptr, ptr %5, align 8
  %19 = getelementptr inbounds ptr, ptr %18, i64 32
  %20 = load ptr, ptr %19, align 8
  %21 = call noundef i32 %20(ptr noundef nonnull align 8 dereferenceable(184) %5)
  %22 = icmp eq i32 %21, 1
  br i1 %22, label %23, label %131

23:                                               ; preds = %17, %11, %1
  %24 = getelementptr inbounds %"class.glslang::TIntermOperator", ptr %5, i32 0, i32 1
  %25 = load i32, ptr %24, align 8
  %26 = icmp eq i32 %25, 161
  br i1 %26, label %31, label %27

27:                                               ; preds = %23
  %28 = getelementptr inbounds %"class.glslang::TIntermOperator", ptr %5, i32 0, i32 1
  %29 = load i32, ptr %28, align 8
  %30 = icmp eq i32 %29, 162
  br i1 %30, label %31, label %54

31:                                               ; preds = %27, %23
  %32 = getelementptr inbounds %"class.glslang::TIntermBinary", ptr %5, i32 0, i32 1
  %33 = load ptr, ptr %32, align 8
  %34 = load ptr, ptr %33, align 8
  %35 = getelementptr inbounds ptr, ptr %34, i64 33
  %36 = load ptr, ptr %35, align 8
  %37 = call noundef nonnull align 8 dereferenceable(80) ptr %36(ptr noundef nonnull align 8 dereferenceable(184) %33)
  %38 = getelementptr inbounds %"class.glslang::TQualifier", ptr %37, i32 0, i32 1
  %39 = load i64, ptr %38, align 8
  %40 = lshr i64 %39, 25
  %41 = and i64 %40, 7
  %42 = trunc i64 %41 to i32
  %43 = load ptr, ptr %5, align 8
  %44 = getelementptr inbounds ptr, ptr %43, i64 33
  %45 = load ptr, ptr %44, align 8
  %46 = call noundef nonnull align 8 dereferenceable(80) ptr %45(ptr noundef nonnull align 8 dereferenceable(184) %5)
  %47 = getelementptr inbounds %"class.glslang::TQualifier", ptr %46, i32 0, i32 1
  %48 = zext i32 %42 to i64
  %49 = load i64, ptr %47, align 8
  %50 = and i64 %48, 7
  %51 = shl i64 %50, 25
  %52 = and i64 %49, -234881025
  %53 = or i64 %52, %51
  store i64 %53, ptr %47, align 8
  br label %130

54:                                               ; preds = %27
  %55 = getelementptr inbounds %"class.glslang::TIntermBinary", ptr %5, i32 0, i32 2
  %56 = load ptr, ptr %55, align 8
  %57 = load ptr, ptr %56, align 8
  %58 = getelementptr inbounds ptr, ptr %57, i64 33
  %59 = load ptr, ptr %58, align 8
  %60 = call noundef nonnull align 8 dereferenceable(80) ptr %59(ptr noundef nonnull align 8 dereferenceable(184) %56)
  %61 = getelementptr inbounds %"class.glslang::TQualifier", ptr %60, i32 0, i32 1
  %62 = load i64, ptr %61, align 8
  %63 = lshr i64 %62, 25
  %64 = and i64 %63, 7
  %65 = trunc i64 %64 to i32
  store i32 %65, ptr %3, align 4
  %66 = getelementptr inbounds %"class.glslang::TIntermBinary", ptr %5, i32 0, i32 1
  %67 = load ptr, ptr %66, align 8
  %68 = load ptr, ptr %67, align 8
  %69 = getelementptr inbounds ptr, ptr %68, i64 33
  %70 = load ptr, ptr %69, align 8
  %71 = call noundef nonnull align 8 dereferenceable(80) ptr %70(ptr noundef nonnull align 8 dereferenceable(184) %67)
  %72 = getelementptr inbounds %"class.glslang::TQualifier", ptr %71, i32 0, i32 1
  %73 = load i64, ptr %72, align 8
  %74 = lshr i64 %73, 25
  %75 = and i64 %74, 7
  %76 = trunc i64 %75 to i32
  store i32 %76, ptr %4, align 4
  %77 = call noundef nonnull align 4 dereferenceable(4) ptr @_ZSt3maxIN7glslang19TPrecisionQualifierEERKT_S4_S4_(ptr noundef nonnull align 4 dereferenceable(4) %3, ptr noundef nonnull align 4 dereferenceable(4) %4)
  %78 = load i32, ptr %77, align 4
  %79 = load ptr, ptr %5, align 8
  %80 = getelementptr inbounds ptr, ptr %79, i64 33
  %81 = load ptr, ptr %80, align 8
  %82 = call noundef nonnull align 8 dereferenceable(80) ptr %81(ptr noundef nonnull align 8 dereferenceable(184) %5)
  %83 = getelementptr inbounds %"class.glslang::TQualifier", ptr %82, i32 0, i32 1
  %84 = zext i32 %78 to i64
  %85 = load i64, ptr %83, align 8
  %86 = and i64 %84, 7
  %87 = shl i64 %86, 25
  %88 = and i64 %85, -234881025
  %89 = or i64 %88, %87
  store i64 %89, ptr %83, align 8
  %90 = load ptr, ptr %5, align 8
  %91 = getelementptr inbounds ptr, ptr %90, i64 33
  %92 = load ptr, ptr %91, align 8
  %93 = call noundef nonnull align 8 dereferenceable(80) ptr %92(ptr noundef nonnull align 8 dereferenceable(184) %5)
  %94 = getelementptr inbounds %"class.glslang::TQualifier", ptr %93, i32 0, i32 1
  %95 = load i64, ptr %94, align 8
  %96 = lshr i64 %95, 25
  %97 = and i64 %96, 7
  %98 = trunc i64 %97 to i32
  %99 = icmp ne i32 %98, 0
  br i1 %99, label %100, label %129

100:                                              ; preds = %54
  %101 = getelementptr inbounds %"class.glslang::TIntermBinary", ptr %5, i32 0, i32 1
  %102 = load ptr, ptr %101, align 8
  %103 = load ptr, ptr %5, align 8
  %104 = getelementptr inbounds ptr, ptr %103, i64 33
  %105 = load ptr, ptr %104, align 8
  %106 = call noundef nonnull align 8 dereferenceable(80) ptr %105(ptr noundef nonnull align 8 dereferenceable(184) %5)
  %107 = getelementptr inbounds %"class.glslang::TQualifier", ptr %106, i32 0, i32 1
  %108 = load i64, ptr %107, align 8
  %109 = lshr i64 %108, 25
  %110 = and i64 %109, 7
  %111 = trunc i64 %110 to i32
  %112 = load ptr, ptr %102, align 8
  %113 = getelementptr inbounds ptr, ptr %112, i64 37
  %114 = load ptr, ptr %113, align 8
  call void %114(ptr noundef nonnull align 8 dereferenceable(184) %102, i32 noundef %111)
  %115 = getelementptr inbounds %"class.glslang::TIntermBinary", ptr %5, i32 0, i32 2
  %116 = load ptr, ptr %115, align 8
  %117 = load ptr, ptr %5, align 8
  %118 = getelementptr inbounds ptr, ptr %117, i64 33
  %119 = load ptr, ptr %118, align 8
  %120 = call noundef nonnull align 8 dereferenceable(80) ptr %119(ptr noundef nonnull align 8 dereferenceable(184) %5)
  %121 = getelementptr inbounds %"class.glslang::TQualifier", ptr %120, i32 0, i32 1
  %122 = load i64, ptr %121, align 8
  %123 = lshr i64 %122, 25
  %124 = and i64 %123, 7
  %125 = trunc i64 %124 to i32
  %126 = load ptr, ptr %116, align 8
  %127 = getelementptr inbounds ptr, ptr %126, i64 37
  %128 = load ptr, ptr %127, align 8
  call void %128(ptr noundef nonnull align 8 dereferenceable(184) %116, i32 noundef %125)
  br label %129

129:                                              ; preds = %100, %54
  br label %130

130:                                              ; preds = %129, %31
  br label %131

131:                                              ; preds = %130, %17
  ret void
}