; Function Attrs: mustprogress nounwind uwtable
define void @_ZN7glslang13TIntermBinary15updatePrecisionEv(ptr noundef nonnull align 8 dereferenceable(208) %0) unnamed_addr #0 align 2 {
  %2 = load ptr, ptr %0, align 8
  %3 = getelementptr inbounds i8, ptr %2, i64 256
  %4 = load ptr, ptr %3, align 8
  %5 = tail call noundef i32 %4(ptr noundef nonnull align 8 dereferenceable(184) %0) #17
  %6 = icmp eq i32 %5, 8
  br i1 %6, label %19, label %7

7:                                                ; preds = %1
  %8 = load ptr, ptr %0, align 8
  %9 = getelementptr inbounds i8, ptr %8, i64 256
  %10 = load ptr, ptr %9, align 8
  %11 = tail call noundef i32 %10(ptr noundef nonnull align 8 dereferenceable(184) %0) #17
  %12 = icmp eq i32 %11, 9
  br i1 %12, label %19, label %13

13:                                               ; preds = %7
  %14 = load ptr, ptr %0, align 8
  %15 = getelementptr inbounds i8, ptr %14, i64 256
  %16 = load ptr, ptr %15, align 8
  %17 = tail call noundef i32 %16(ptr noundef nonnull align 8 dereferenceable(184) %0) #17
  %18 = icmp eq i32 %17, 1
  br i1 %18, label %19, label %107

19:                                               ; preds = %13, %7, %1
  %20 = getelementptr inbounds i8, ptr %0, i64 184
  %21 = load i32, ptr %20, align 8
  %.off = add i32 %21, -161
  %switch = icmp ult i32 %.off, 2
  br i1 %switch, label %22, label %40

22:                                               ; preds = %19
  %23 = getelementptr inbounds i8, ptr %0, i64 192
  %24 = load ptr, ptr %23, align 8
  %25 = load ptr, ptr %24, align 8
  %26 = getelementptr inbounds i8, ptr %25, i64 264
  %27 = load ptr, ptr %26, align 8
  %28 = tail call noundef nonnull align 8 dereferenceable(80) ptr %27(ptr noundef nonnull align 8 dereferenceable(184) %24) #17
  %29 = getelementptr inbounds i8, ptr %28, i64 8
  %30 = load i64, ptr %29, align 8
  %31 = and i64 %30, 234881024
  %32 = load ptr, ptr %0, align 8
  %33 = getelementptr inbounds i8, ptr %32, i64 264
  %34 = load ptr, ptr %33, align 8
  %35 = tail call noundef nonnull align 8 dereferenceable(80) ptr %34(ptr noundef nonnull align 8 dereferenceable(184) %0) #17
  %36 = getelementptr inbounds i8, ptr %35, i64 8
  %37 = load i64, ptr %36, align 8
  %38 = and i64 %37, -234881025
  %39 = or disjoint i64 %38, %31
  store i64 %39, ptr %36, align 8
  br label %107

40:                                               ; preds = %19
  %41 = getelementptr inbounds i8, ptr %0, i64 200
  %42 = load ptr, ptr %41, align 8
  %43 = load ptr, ptr %42, align 8
  %44 = getelementptr inbounds i8, ptr %43, i64 264
  %45 = load ptr, ptr %44, align 8
  %46 = tail call noundef nonnull align 8 dereferenceable(80) ptr %45(ptr noundef nonnull align 8 dereferenceable(184) %42) #17
  %47 = getelementptr inbounds i8, ptr %46, i64 8
  %48 = load i64, ptr %47, align 8
  %49 = trunc i64 %48 to i32
  %50 = lshr i32 %49, 25
  %51 = and i32 %50, 7
  %52 = getelementptr inbounds i8, ptr %0, i64 192
  %53 = load ptr, ptr %52, align 8
  %54 = load ptr, ptr %53, align 8
  %55 = getelementptr inbounds i8, ptr %54, i64 264
  %56 = load ptr, ptr %55, align 8
  %57 = tail call noundef nonnull align 8 dereferenceable(80) ptr %56(ptr noundef nonnull align 8 dereferenceable(184) %53) #17
  %58 = getelementptr inbounds i8, ptr %57, i64 8
  %59 = load i64, ptr %58, align 8
  %60 = trunc i64 %59 to i32
  %61 = lshr i32 %60, 25
  %62 = and i32 %61, 7
  %.sroa.speculated = tail call i32 @llvm.umax.i32(i32 %51, i32 %62)
  %63 = load ptr, ptr %0, align 8
  %64 = getelementptr inbounds i8, ptr %63, i64 264
  %65 = load ptr, ptr %64, align 8
  %66 = tail call noundef nonnull align 8 dereferenceable(80) ptr %65(ptr noundef nonnull align 8 dereferenceable(184) %0) #17
  %67 = getelementptr inbounds i8, ptr %66, i64 8
  %68 = load i64, ptr %67, align 8
  %69 = shl nuw nsw i32 %.sroa.speculated, 25
  %70 = zext nneg i32 %69 to i64
  %71 = and i64 %68, -234881025
  %72 = or disjoint i64 %71, %70
  store i64 %72, ptr %67, align 8
  %73 = load ptr, ptr %0, align 8
  %74 = getelementptr inbounds i8, ptr %73, i64 264
  %75 = load ptr, ptr %74, align 8
  %76 = tail call noundef nonnull align 8 dereferenceable(80) ptr %75(ptr noundef nonnull align 8 dereferenceable(184) %0) #17
  %77 = getelementptr inbounds i8, ptr %76, i64 8
  %78 = load i64, ptr %77, align 8
  %79 = and i64 %78, 234881024
  %.not = icmp eq i64 %79, 0
  br i1 %.not, label %107, label %80

80:                                               ; preds = %40
  %81 = load ptr, ptr %52, align 8
  %82 = load ptr, ptr %0, align 8
  %83 = getelementptr inbounds i8, ptr %82, i64 264
  %84 = load ptr, ptr %83, align 8
  %85 = tail call noundef nonnull align 8 dereferenceable(80) ptr %84(ptr noundef nonnull align 8 dereferenceable(184) %0) #17
  %86 = getelementptr inbounds i8, ptr %85, i64 8
  %87 = load i64, ptr %86, align 8
  %88 = trunc i64 %87 to i32
  %89 = lshr i32 %88, 25
  %90 = and i32 %89, 7
  %91 = load ptr, ptr %81, align 8
  %92 = getelementptr inbounds i8, ptr %91, i64 296
  %93 = load ptr, ptr %92, align 8
  tail call void %93(ptr noundef nonnull align 8 dereferenceable(184) %81, i32 noundef %90) #17
  %94 = load ptr, ptr %41, align 8
  %95 = load ptr, ptr %0, align 8
  %96 = getelementptr inbounds i8, ptr %95, i64 264
  %97 = load ptr, ptr %96, align 8
  %98 = tail call noundef nonnull align 8 dereferenceable(80) ptr %97(ptr noundef nonnull align 8 dereferenceable(184) %0) #17
  %99 = getelementptr inbounds i8, ptr %98, i64 8
  %100 = load i64, ptr %99, align 8
  %101 = trunc i64 %100 to i32
  %102 = lshr i32 %101, 25
  %103 = and i32 %102, 7
  %104 = load ptr, ptr %94, align 8
  %105 = getelementptr inbounds i8, ptr %104, i64 296
  %106 = load ptr, ptr %105, align 8
  tail call void %106(ptr noundef nonnull align 8 dereferenceable(184) %94, i32 noundef %103) #17
  br label %107

107:                                              ; preds = %22, %80, %40, %13
  ret void
}